; Function Attrs: mustprogress nounwind willreturn uwtable
define noalias noundef ptr @av_realloc_f(ptr noundef captures(none) %0, i64 noundef %1, i64 noundef %2) local_unnamed_addr #4 {
  %4 = tail call { i64, i1 } @llvm.umul.with.overflow.i64(i64 %2, i64 %1)
  %5 = extractvalue { i64, i1 } %4, 1
  br i1 %5, label %.sink.split, label %6

6:                                                ; preds = %3
  %7 = extractvalue { i64, i1 } %4, 0
  %8 = load atomic i64, ptr @max_alloc_size monotonic, align 8
  %9 = icmp ugt i64 %7, %8
  br i1 %9, label %.sink.split, label %av_realloc.exit

av_realloc.exit:                                  ; preds = %6
  %10 = tail call i64 @llvm.umax.i64(i64 %7, i64 1)
  %11 = tail call ptr @realloc(ptr noundef %0, i64 noundef %10) #22
  %.not7 = icmp eq ptr %11, null
  br i1 %.not7, label %.sink.split, label %12

.sink.split:                                      ; preds = %av_realloc.exit, %6, %3
  tail call void @free(ptr noundef %0) #21
  br label %12

12:                                               ; preds = %.sink.split, %av_realloc.exit
  %.0 = phi ptr [ %11, %av_realloc.exit ], [ null, %.sink.split ]
  ret ptr %.0
}